target datalayout = "e-m:e-p270:32:32-p271:32:32-p272:64:64-i64:64-i128:128-f80:128-n8:16:32:64-S128"
target triple = "x86_64-pc-linux-gnu"

%struct.Gia_Man_t_ = type { ptr, ptr, i32, i32, i32, i32, ptr, ptr, i32, i32, i32, ptr, ptr, %struct.Vec_Int_t_, %struct.Vec_Int_t_, i32, i32, i32, %struct.Vec_Int_t_, ptr, ptr, ptr, i32, i32, i32, i32, ptr, ptr, ptr, ptr, ptr, i32, i32, ptr, i32, ptr, ptr, ptr, ptr, ptr, ptr, ptr, ptr, ptr, ptr, ptr, ptr, ptr, ptr, ptr, ptr, ptr, ptr, %struct.Vec_Int_t_, %struct.Vec_Int_t_, ptr, ptr, ptr, ptr, ptr, ptr, ptr, ptr, ptr, ptr, ptr, ptr, ptr, ptr, ptr, ptr, ptr, ptr, ptr, ptr, ptr, i32, float, float, ptr, ptr, i32, ptr, ptr, ptr, ptr, ptr, ptr, ptr, ptr, ptr, ptr, ptr, ptr, ptr, ptr, ptr, i64, i64, ptr, ptr, i32, i32, i32, i32, i32, i32, i32, i32, i32, i32, i32, i32, ptr, ptr, ptr, ptr, ptr, ptr, ptr, ptr, i32, i32, i32, ptr, i32, i32, ptr, ptr, ptr, ptr, ptr, ptr, i32, i32, ptr, %struct.Vec_Int_t_, %struct.Vec_Int_t_, %struct.Vec_Int_t_, ptr, ptr, ptr, i32, i32, i32, i32, ptr, ptr, ptr, ptr, ptr }
%struct.Vec_Int_t_ = type { i32, i32, ptr }
%struct.Gia_ManUnr_t_ = type { ptr, ptr, ptr, ptr, ptr, ptr, ptr, ptr, ptr, ptr, i32 }
%struct.Gia_ParFra_t_ = type { i32, i32, i32, i32, i32, i32 }

; Function Attrs: inlinehint nounwind uwtable
define internal i32 @Vec_IntSize(ptr noundef %0) #1 {
  %2 = alloca ptr, align 8
  store ptr %0, ptr %2, align 8, !tbaa !39
  %3 = load ptr, ptr %2, align 8, !tbaa !39
  %4 = getelementptr inbounds nuw %struct.Vec_Int_t_, ptr %3, i32 0, i32 1
  %5 = load i32, ptr %4, align 4, !tbaa !47
  ret i32 %5
}

; Function Attrs: inlinehint nounwind uwtable
define internal i32 @Gia_ManRegNum(ptr noundef %0) #1 {
  %2 = alloca ptr, align 8
  store ptr %0, ptr %2, align 8, !tbaa !3
  %3 = load ptr, ptr %2, align 8, !tbaa !3
  %4 = getelementptr inbounds nuw %struct.Gia_Man_t_, ptr %3, i32 0, i32 2
  %5 = load i32, ptr %4, align 8, !tbaa !50
  ret i32 %5
}

; Function Attrs: inlinehint nounwind uwtable
define internal i32 @Gia_ManPiNum(ptr noundef %0) #1 {
  %2 = alloca ptr, align 8
  store ptr %0, ptr %2, align 8, !tbaa !3
  %3 = load ptr, ptr %2, align 8, !tbaa !3
  %4 = getelementptr inbounds nuw %struct.Gia_Man_t_, ptr %3, i32 0, i32 11
  %5 = load ptr, ptr %4, align 8, !tbaa !14
  %6 = call i32 @Vec_IntSize(ptr noundef %5)
  %7 = load ptr, ptr %2, align 8, !tbaa !3
  %8 = getelementptr inbounds nuw %struct.Gia_Man_t_, ptr %7, i32 0, i32 2
  %9 = load i32, ptr %8, align 8, !tbaa !50
  %10 = sub nsw i32 %6, %9
  ret i32 %10
}

; Function Attrs: inlinehint nounwind uwtable
define internal ptr @Abc_UtilStrsav(ptr noundef %0) #1 {
  %2 = alloca ptr, align 8
  store ptr %0, ptr %2, align 8, !tbaa !46
  %3 = load ptr, ptr %2, align 8, !tbaa !46
  %4 = icmp ne ptr %3, null
  br i1 %4, label %5, label %13

5:                                                ; preds = %1
  %6 = load ptr, ptr %2, align 8, !tbaa !46
  %7 = call i64 @strlen(ptr noundef %6) #13
  %8 = add i64 %7, 1
  %9 = mul i64 1, %8
  %10 = call noalias ptr @malloc(i64 noundef %9) #14
  %11 = load ptr, ptr %2, align 8, !tbaa !46
  %12 = call ptr @strcpy(ptr noundef %10, ptr noundef %11) #12
  br label %14

13:                                               ; preds = %1
  br label %14

14:                                               ; preds = %13, %5
  %15 = phi ptr [ %12, %5 ], [ null, %13 ]
  ret ptr %15
}

; Function Attrs: nounwind uwtable
define ptr @Gia_ManUnrollStart(ptr noundef %0, ptr noundef %1) #0 {
  %3 = alloca ptr, align 8
  %4 = alloca ptr, align 8
  %5 = alloca ptr, align 8
  %6 = alloca i32, align 4
  %7 = alloca i32, align 4
  store ptr %0, ptr %3, align 8, !tbaa !3
  store ptr %1, ptr %4, align 8, !tbaa !62
  call void @llvm.lifetime.start.p0(i64 8, ptr %5) #12
  call void @llvm.lifetime.start.p0(i64 4, ptr %6) #12
  call void @llvm.lifetime.start.p0(i64 4, ptr %7) #12
  %8 = load ptr, ptr %3, align 8, !tbaa !3
  %9 = load ptr, ptr %4, align 8, !tbaa !62
  %10 = call ptr @Gia_ManUnrStart(ptr noundef %8, ptr noundef %9)
  store ptr %10, ptr %5, align 8, !tbaa !65
  %11 = call ptr @Gia_ManStart(i32 noundef 10000)
  %12 = load ptr, ptr %5, align 8, !tbaa !65
  %13 = getelementptr inbounds nuw %struct.Gia_ManUnr_t_, ptr %12, i32 0, i32 9
  store ptr %11, ptr %13, align 8, !tbaa !87
  %14 = load ptr, ptr %5, align 8, !tbaa !65
  %15 = getelementptr inbounds nuw %struct.Gia_ManUnr_t_, ptr %14, i32 0, i32 1
  %16 = load ptr, ptr %15, align 8, !tbaa !67
  %17 = getelementptr inbounds nuw %struct.Gia_Man_t_, ptr %16, i32 0, i32 0
  %18 = load ptr, ptr %17, align 8, !tbaa !40
  %19 = call ptr @Abc_UtilStrsav(ptr noundef %18)
  %20 = load ptr, ptr %5, align 8, !tbaa !65
  %21 = getelementptr inbounds nuw %struct.Gia_ManUnr_t_, ptr %20, i32 0, i32 9
  %22 = load ptr, ptr %21, align 8, !tbaa !87
  %23 = getelementptr inbounds nuw %struct.Gia_Man_t_, ptr %22, i32 0, i32 0
  store ptr %19, ptr %23, align 8, !tbaa !40
  %24 = load ptr, ptr %5, align 8, !tbaa !65
  %25 = getelementptr inbounds nuw %struct.Gia_ManUnr_t_, ptr %24, i32 0, i32 1
  %26 = load ptr, ptr %25, align 8, !tbaa !67
  %27 = getelementptr inbounds nuw %struct.Gia_Man_t_, ptr %26, i32 0, i32 1
  %28 = load ptr, ptr %27, align 8, !tbaa !41
  %29 = call ptr @Abc_UtilStrsav(ptr noundef %28)
  %30 = load ptr, ptr %5, align 8, !tbaa !65
  %31 = getelementptr inbounds nuw %struct.Gia_ManUnr_t_, ptr %30, i32 0, i32 9
  %32 = load ptr, ptr %31, align 8, !tbaa !87
  %33 = getelementptr inbounds nuw %struct.Gia_Man_t_, ptr %32, i32 0, i32 1
  store ptr %29, ptr %33, align 8, !tbaa !41
  %34 = load ptr, ptr %5, align 8, !tbaa !65
  %35 = getelementptr inbounds nuw %struct.Gia_ManUnr_t_, ptr %34, i32 0, i32 9
  %36 = load ptr, ptr %35, align 8, !tbaa !87
  call void @Gia_ManHashAlloc(ptr noundef %36)
  %37 = load ptr, ptr %5, align 8, !tbaa !65
  %38 = getelementptr inbounds nuw %struct.Gia_ManUnr_t_, ptr %37, i32 0, i32 0
  %39 = load ptr, ptr %38, align 8, !tbaa !69
  %40 = getelementptr inbounds nuw %struct.Gia_ParFra_t_, ptr %39, i32 0, i32 2
  %41 = load i32, ptr %40, align 4, !tbaa !88
  %42 = icmp ne i32 %41, 0
  br i1 %42, label %73, label %43

43:                                               ; preds = %2
  store i32 0, ptr %6, align 4, !tbaa !10
  br label %44

44:                                               ; preds = %69, %43
  %45 = load i32, ptr %6, align 4, !tbaa !10
  %46 = load ptr, ptr %5, align 8, !tbaa !65
  %47 = getelementptr inbounds nuw %struct.Gia_ManUnr_t_, ptr %46, i32 0, i32 0
  %48 = load ptr, ptr %47, align 8, !tbaa !69
  %49 = getelementptr inbounds nuw %struct.Gia_ParFra_t_, ptr %48, i32 0, i32 0
  %50 = load i32, ptr %49, align 4, !tbaa !89
  %51 = icmp slt i32 %45, %50
  br i1 %51, label %52, label %72

52:                                               ; preds = %44
  store i32 0, ptr %7, align 4, !tbaa !10
  br label %53

53:                                               ; preds = %65, %52
  %54 = load i32, ptr %7, align 4, !tbaa !10
  %55 = load ptr, ptr %5, align 8, !tbaa !65
  %56 = getelementptr inbounds nuw %struct.Gia_ManUnr_t_, ptr %55, i32 0, i32 1
  %57 = load ptr, ptr %56, align 8, !tbaa !67
  %58 = call i32 @Gia_ManPiNum(ptr noundef %57)
  %59 = icmp slt i32 %54, %58
  br i1 %59, label %60, label %68

60:                                               ; preds = %53
  %61 = load ptr, ptr %5, align 8, !tbaa !65
  %62 = getelementptr inbounds nuw %struct.Gia_ManUnr_t_, ptr %61, i32 0, i32 9
  %63 = load ptr, ptr %62, align 8, !tbaa !87
  %64 = call i32 @Gia_ManAppendCi(ptr noundef %63)
  br label %65

65:                                               ; preds = %60
  %66 = load i32, ptr %7, align 4, !tbaa !10
  %67 = add nsw i32 %66, 1
  store i32 %67, ptr %7, align 4, !tbaa !10
  br label %53, !llvm.loop !90

68:                                               ; preds = %53
  br label %69

69:                                               ; preds = %68
  %70 = load i32, ptr %6, align 4, !tbaa !10
  %71 = add nsw i32 %70, 1
  store i32 %71, ptr %6, align 4, !tbaa !10
  br label %44, !llvm.loop !91

72:                                               ; preds = %44
  br label %73

73:                                               ; preds = %72, %2
  %74 = load ptr, ptr %5, align 8, !tbaa !65
  %75 = getelementptr inbounds nuw %struct.Gia_ManUnr_t_, ptr %74, i32 0, i32 0
  %76 = load ptr, ptr %75, align 8, !tbaa !69
  %77 = getelementptr inbounds nuw %struct.Gia_ParFra_t_, ptr %76, i32 0, i32 1
  %78 = load i32, ptr %77, align 4, !tbaa !92
  %79 = icmp ne i32 %78, 0
  br i1 %79, label %97, label %80

80:                                               ; preds = %73
  store i32 0, ptr %7, align 4, !tbaa !10
  br label %81

81:                                               ; preds = %93, %80
  %82 = load i32, ptr %7, align 4, !tbaa !10
  %83 = load ptr, ptr %5, align 8, !tbaa !65
  %84 = getelementptr inbounds nuw %struct.Gia_ManUnr_t_, ptr %83, i32 0, i32 1
  %85 = load ptr, ptr %84, align 8, !tbaa !67
  %86 = call i32 @Gia_ManRegNum(ptr noundef %85)
  %87 = icmp slt i32 %82, %86
  br i1 %87, label %88, label %96

88:                                               ; preds = %81
  %89 = load ptr, ptr %5, align 8, !tbaa !65
  %90 = getelementptr inbounds nuw %struct.Gia_ManUnr_t_, ptr %89, i32 0, i32 9
  %91 = load ptr, ptr %90, align 8, !tbaa !87
  %92 = call i32 @Gia_ManAppendCi(ptr noundef %91)
  br label %93

93:                                               ; preds = %88
  %94 = load i32, ptr %7, align 4, !tbaa !10
  %95 = add nsw i32 %94, 1
  store i32 %95, ptr %7, align 4, !tbaa !10
  br label %81, !llvm.loop !93

96:                                               ; preds = %81
  br label %97

97:                                               ; preds = %96, %73
  %98 = load ptr, ptr %5, align 8, !tbaa !65
  call void @llvm.lifetime.end.p0(i64 4, ptr %7) #12
  call void @llvm.lifetime.end.p0(i64 4, ptr %6) #12
  call void @llvm.lifetime.end.p0(i64 8, ptr %5) #12
  ret ptr %98
}