; Function Attrs: nounwind uwtable
define noalias noundef ptr @Gia_ManUnrollStart(ptr noundef %0, ptr noundef %1) local_unnamed_addr #0 {
  %3 = tail call ptr @Gia_ManUnrStart(ptr noundef %0, ptr noundef %1)
  %4 = tail call ptr @Gia_ManStart(i32 noundef 10000) #23
  %5 = getelementptr inbounds nuw i8, ptr %3, i64 72
  store ptr %4, ptr %5, align 8, !tbaa !78
  %6 = getelementptr inbounds nuw i8, ptr %3, i64 8
  %7 = load ptr, ptr %6, align 8, !tbaa !58
  %8 = load ptr, ptr %7, align 8, !tbaa !41
  %.not.i = icmp eq ptr %8, null
  br i1 %.not.i, label %Abc_UtilStrsav.exit, label %9

9:                                                ; preds = %2
  %10 = tail call i64 @strlen(ptr noundef nonnull readonly dereferenceable(1) %8) #24
  %11 = add i64 %10, 1
  %12 = tail call noalias ptr @malloc(i64 noundef %11) #22
  %13 = tail call ptr @strcpy(ptr noundef nonnull dereferenceable(1) %12, ptr noundef nonnull readonly dereferenceable(1) %8) #23
  br label %Abc_UtilStrsav.exit

Abc_UtilStrsav.exit:                              ; preds = %2, %9
  %14 = phi ptr [ %12, %9 ], [ null, %2 ]
  store ptr %14, ptr %4, align 8, !tbaa !41
  %15 = getelementptr inbounds nuw i8, ptr %7, i64 8
  %16 = load ptr, ptr %15, align 8, !tbaa !42
  %.not.i25 = icmp eq ptr %16, null
  br i1 %.not.i25, label %Abc_UtilStrsav.exit26, label %17

17:                                               ; preds = %Abc_UtilStrsav.exit
  %18 = tail call i64 @strlen(ptr noundef nonnull readonly dereferenceable(1) %16) #24
  %19 = add i64 %18, 1
  %20 = tail call noalias ptr @malloc(i64 noundef %19) #22
  %21 = tail call ptr @strcpy(ptr noundef nonnull dereferenceable(1) %20, ptr noundef nonnull readonly dereferenceable(1) %16) #23
  br label %Abc_UtilStrsav.exit26

Abc_UtilStrsav.exit26:                            ; preds = %Abc_UtilStrsav.exit, %17
  %22 = phi ptr [ %20, %17 ], [ null, %Abc_UtilStrsav.exit ]
  %23 = getelementptr inbounds nuw i8, ptr %4, i64 8
  store ptr %22, ptr %23, align 8, !tbaa !42
  tail call void @Gia_ManHashAlloc(ptr noundef nonnull %4) #23
  %24 = load ptr, ptr %3, align 8, !tbaa !61
  %25 = getelementptr inbounds nuw i8, ptr %24, i64 8
  %26 = load i32, ptr %25, align 4, !tbaa !79
  %.not = icmp eq i32 %26, 0
  br i1 %.not, label %.preheader28, label %.loopexit29

.preheader28:                                     ; preds = %Abc_UtilStrsav.exit26
  %27 = load i32, ptr %24, align 4, !tbaa !80
  %28 = icmp sgt i32 %27, 0
  br i1 %28, label %.preheader27.lr.ph, label %.loopexit29

.preheader27.lr.ph:                               ; preds = %.preheader28
  %29 = getelementptr i8, ptr %7, i64 16
  %30 = getelementptr i8, ptr %7, i64 64
  %31 = getelementptr inbounds nuw i8, ptr %4, i64 64
  %32 = getelementptr i8, ptr %4, i64 32
  %.val30.pre = load i32, ptr %29, align 8, !tbaa !43
  %.val2331.pre = load ptr, ptr %30, align 8, !tbaa !30
  br label %.preheader27

.preheader27:                                     ; preds = %.preheader27.lr.ph, %._crit_edge
  %33 = phi i32 [ %27, %.preheader27.lr.ph ], [ %87, %._crit_edge ]
  %.val2331 = phi ptr [ %.val2331.pre, %.preheader27.lr.ph ], [ %.val233140, %._crit_edge ]
  %.val30 = phi i32 [ %.val30.pre, %.preheader27.lr.ph ], [ %.val3038, %._crit_edge ]
  %.02134 = phi i32 [ 0, %.preheader27.lr.ph ], [ %88, %._crit_edge ]
  %34 = getelementptr i8, ptr %.val2331, i64 4
  %.val23.val32 = load i32, ptr %34, align 4, !tbaa !31
  %35 = icmp sgt i32 %.val23.val32, %.val30
  br i1 %35, label %.lr.ph, label %._crit_edge

.lr.ph:                                           ; preds = %.preheader27, %Gia_ManAppendCi.exit
  %.033 = phi i32 [ %83, %Gia_ManAppendCi.exit ], [ 0, %.preheader27 ]
  %36 = tail call fastcc ptr @Gia_ManAppendObj(ptr noundef nonnull %4)
  %37 = load i64, ptr %36, align 4
  %38 = or i64 %37, 2684354559
  store i64 %38, ptr %36, align 4
  %39 = load ptr, ptr %31, align 8, !tbaa !30
  %40 = getelementptr i8, ptr %39, i64 4
  %.val.i = load i32, ptr %40, align 4, !tbaa !31
  %41 = and i32 %.val.i, 536870911
  %42 = zext nneg i32 %41 to i64
  %43 = shl nuw nsw i64 %42, 32
  %44 = and i64 %38, -2305843004918726657
  %45 = or disjoint i64 %43, %44
  store i64 %45, ptr %36, align 4
  %46 = load ptr, ptr %31, align 8, !tbaa !30
  %.val10.i = load ptr, ptr %32, align 8, !tbaa !8
  %47 = getelementptr inbounds nuw i8, ptr %46, i64 4
  %48 = load i32, ptr %47, align 4, !tbaa !31
  %49 = load i32, ptr %46, align 8, !tbaa !32
  %50 = icmp eq i32 %48, %49
  br i1 %50, label %51, label %.Vec_IntGrow.exit10_crit_edge.i.i

.Vec_IntGrow.exit10_crit_edge.i.i:                ; preds = %.lr.ph
  %.phi.trans.insert.i.i = getelementptr inbounds nuw i8, ptr %46, i64 8
  %.pre.i.i = load ptr, ptr %.phi.trans.insert.i.i, align 8, !tbaa !33
  br label %Gia_ManAppendCi.exit

51:                                               ; preds = %.lr.ph
  %52 = icmp slt i32 %48, 16
  br i1 %52, label %53, label %61

53:                                               ; preds = %51
  %54 = getelementptr inbounds nuw i8, ptr %46, i64 8
  %55 = load ptr, ptr %54, align 8, !tbaa !33
  %.not9.i.i.i = icmp eq ptr %55, null
  br i1 %.not9.i.i.i, label %58, label %56

56:                                               ; preds = %53
  %57 = tail call dereferenceable_or_null(64) ptr @realloc(ptr noundef nonnull %55, i64 noundef 64) #21
  br label %Vec_IntGrow.exit.i.i

58:                                               ; preds = %53
  %59 = tail call noalias dereferenceable_or_null(64) ptr @malloc(i64 noundef 64) #22
  br label %Vec_IntGrow.exit.i.i

Vec_IntGrow.exit.i.i:                             ; preds = %58, %56
  %60 = phi ptr [ %57, %56 ], [ %59, %58 ]
  store ptr %60, ptr %54, align 8, !tbaa !33
  store i32 16, ptr %46, align 8, !tbaa !32
  br label %Gia_ManAppendCi.exit

61:                                               ; preds = %51
  %62 = shl nuw nsw i32 %48, 1
  %63 = getelementptr inbounds nuw i8, ptr %46, i64 8
  %64 = load ptr, ptr %63, align 8, !tbaa !33
  %.not9.i9.i.i = icmp eq ptr %64, null
  %65 = zext nneg i32 %62 to i64
  %66 = shl nuw nsw i64 %65, 2
  br i1 %.not9.i9.i.i, label %69, label %67

67:                                               ; preds = %61
  %68 = tail call ptr @realloc(ptr noundef nonnull %64, i64 noundef %66) #21
  br label %71

69:                                               ; preds = %61
  %70 = tail call noalias ptr @malloc(i64 noundef %66) #22
  br label %71

71:                                               ; preds = %69, %67
  %72 = phi ptr [ %68, %67 ], [ %70, %69 ]
  store ptr %72, ptr %63, align 8, !tbaa !33
  store i32 %62, ptr %46, align 8, !tbaa !32
  br label %Gia_ManAppendCi.exit

Gia_ManAppendCi.exit:                             ; preds = %.Vec_IntGrow.exit10_crit_edge.i.i, %Vec_IntGrow.exit.i.i, %71
  %73 = phi ptr [ %.pre.i.i, %.Vec_IntGrow.exit10_crit_edge.i.i ], [ %72, %71 ], [ %60, %Vec_IntGrow.exit.i.i ]
  %74 = ptrtoint ptr %36 to i64
  %75 = ptrtoint ptr %.val10.i to i64
  %76 = sub i64 %74, %75
  %77 = sdiv exact i64 %76, 12
  %78 = trunc i64 %77 to i32
  %79 = load i32, ptr %47, align 4, !tbaa !31
  %80 = add nsw i32 %79, 1
  store i32 %80, ptr %47, align 4, !tbaa !31
  %81 = sext i32 %79 to i64
  %82 = getelementptr inbounds i32, ptr %73, i64 %81
  store i32 %78, ptr %82, align 4, !tbaa !34
  %83 = add nuw nsw i32 %.033, 1
  %.val = load i32, ptr %29, align 8, !tbaa !43
  %.val23 = load ptr, ptr %30, align 8, !tbaa !30
  %84 = getelementptr i8, ptr %.val23, i64 4
  %.val23.val = load i32, ptr %84, align 4, !tbaa !31
  %85 = sub nsw i32 %.val23.val, %.val
  %86 = icmp slt i32 %83, %85
  br i1 %86, label %.lr.ph, label %._crit_edge.loopexit, !llvm.loop !81

._crit_edge.loopexit:                             ; preds = %Gia_ManAppendCi.exit
  %.pre = load i32, ptr %24, align 4, !tbaa !80
  br label %._crit_edge

._crit_edge:                                      ; preds = %._crit_edge.loopexit, %.preheader27
  %87 = phi i32 [ %.pre, %._crit_edge.loopexit ], [ %33, %.preheader27 ]
  %.val233140 = phi ptr [ %.val23, %._crit_edge.loopexit ], [ %.val2331, %.preheader27 ]
  %.val3038 = phi i32 [ %.val, %._crit_edge.loopexit ], [ %.val30, %.preheader27 ]
  %88 = add nuw nsw i32 %.02134, 1
  %89 = icmp slt i32 %88, %87
  br i1 %89, label %.preheader27, label %.loopexit29, !llvm.loop !82

.loopexit29:                                      ; preds = %._crit_edge, %.preheader28, %Abc_UtilStrsav.exit26
  %90 = getelementptr inbounds nuw i8, ptr %24, i64 4
  %91 = load i32, ptr %90, align 4, !tbaa !83
  %.not22 = icmp eq i32 %91, 0
  br i1 %.not22, label %.preheader, label %.loopexit

.preheader:                                       ; preds = %.loopexit29
  %92 = getelementptr i8, ptr %7, i64 16
  %.val2435 = load i32, ptr %92, align 8, !tbaa !43
  %93 = icmp sgt i32 %.val2435, 0
  br i1 %93, label %.lr.ph37, label %.loopexit

.lr.ph37:                                         ; preds = %.preheader, %.lr.ph37
  %.136 = phi i32 [ %95, %.lr.ph37 ], [ 0, %.preheader ]
  %94 = tail call fastcc i32 @Gia_ManAppendCi(ptr noundef nonnull %4)
  %95 = add nuw nsw i32 %.136, 1
  %.val24 = load i32, ptr %92, align 8, !tbaa !43
  %96 = icmp slt i32 %95, %.val24
  br i1 %96, label %.lr.ph37, label %.loopexit, !llvm.loop !84

.loopexit:                                        ; preds = %.lr.ph37, %.preheader, %.loopexit29
  ret ptr %3
}